target datalayout = "e-m:e-p270:32:32-p271:32:32-p272:64:64-i64:64-i128:128-f80:128-n8:16:32:64-S128"
target triple = "x86_64-pc-linux-gnu"

%struct.H5VL_dyn_op_t = type { ptr, i32 }

@H5VL_init_g = external global i8, align 1
@H5_libterm_g = external global i8, align 1
@H5VL_opt_ops_g = internal global [13 x ptr] zeroinitializer, align 16
@.str = private unnamed_addr constant [105 x i8] c"generated/home/dtcxzyw/WorkSpace/Projects/compilers/llvm-opt-benchmark/bench/hdf5/hdf5/src/H5VLdyn_ops.c\00", align 1
@H5E_VOL_g = external global i64, align 8
@H5E_NOTFOUND_g = external global i64, align 8
@.str.6 = private unnamed_addr constant [32 x i8] c"operation name isn't registered\00", align 1
@__func__.H5VL__unregister_opt_operation = private unnamed_addr constant [31 x i8] c"H5VL__unregister_opt_operation\00", align 1
@H5E_CANTCLOSEOBJ_g = external global i64, align 8
@.str.7 = private unnamed_addr constant [29 x i8] c"can't close dyn op skip list\00", align 1
@H5_H5VL_dyn_op_t_reg_free_list = internal global { i8, [3 x i8], i32, i32, [4 x i8], ptr, i64, ptr } { i8 0, [3 x i8] zeroinitializer, i32 0, i32 0, [4 x i8] zeroinitializer, ptr @.str.8, i64 16, ptr null }, align 8

; Function Attrs: nounwind uwtable
define internal void @H5VL__release_dyn_op(ptr noundef %0) #0 {
  %2 = alloca ptr, align 8
  store ptr %0, ptr %2, align 8, !tbaa !17
  %3 = load i8, ptr @H5VL_init_g, align 1, !tbaa !3, !range !7, !noundef !8
  %4 = trunc i8 %3 to i1
  br i1 %4, label %9, label %5

5:                                                ; preds = %1
  %6 = load i8, ptr @H5_libterm_g, align 1, !tbaa !3, !range !7, !noundef !8
  %7 = trunc i8 %6 to i1
  %8 = xor i1 %7, true
  br label %9

9:                                                ; preds = %5, %1
  %10 = phi i1 [ true, %1 ], [ %8, %5 ]
  %11 = xor i1 %10, true
  %12 = xor i1 %11, true
  %13 = zext i1 %12 to i32
  %14 = sext i32 %13 to i64
  %15 = call i64 @llvm.expect.i64(i64 %14, i64 1)
  %16 = icmp ne i64 %15, 0
  br i1 %16, label %17, label %24

17:                                               ; preds = %9
  %18 = load ptr, ptr %2, align 8, !tbaa !17
  %19 = getelementptr inbounds nuw %struct.H5VL_dyn_op_t, ptr %18, i32 0, i32 0
  %20 = load ptr, ptr %19, align 8, !tbaa !25
  %21 = call ptr @H5MM_xfree(ptr noundef %20)
  %22 = load ptr, ptr %2, align 8, !tbaa !17
  %23 = call ptr @H5FL_reg_free(ptr noundef @H5_H5VL_dyn_op_t_reg_free_list, ptr noundef %22)
  br label %24

24:                                               ; preds = %17, %9
  ret void
}

; Function Attrs: nounwind uwtable
define i32 @H5VL__unregister_opt_operation(i32 noundef %0, ptr noundef %1) #0 {
  %3 = alloca i32, align 4
  %4 = alloca i32, align 4
  %5 = alloca ptr, align 8
  %6 = alloca i32, align 4
  %7 = alloca i8, align 1
  %8 = alloca ptr, align 8
  %9 = alloca i32, align 4
  store i32 %0, ptr %4, align 4, !tbaa !19
  store ptr %1, ptr %5, align 8, !tbaa !21
  call void @llvm.lifetime.start.p0(i64 4, ptr %6) #4
  store i32 0, ptr %6, align 4, !tbaa !19
  call void @llvm.lifetime.start.p0(i64 1, ptr %7) #4
  store i8 0, ptr %7, align 1, !tbaa !3
  %10 = load i8, ptr @H5VL_init_g, align 1, !tbaa !3, !range !7, !noundef !8
  %11 = trunc i8 %10 to i1
  br i1 %11, label %16, label %12

12:                                               ; preds = %2
  %13 = load i8, ptr @H5_libterm_g, align 1, !tbaa !3, !range !7, !noundef !8
  %14 = trunc i8 %13 to i1
  %15 = xor i1 %14, true
  br label %16

16:                                               ; preds = %12, %2
  %17 = phi i1 [ true, %2 ], [ %15, %12 ]
  %18 = xor i1 %17, true
  %19 = xor i1 %18, true
  %20 = zext i1 %19 to i32
  %21 = sext i32 %20 to i64
  %22 = call i64 @llvm.expect.i64(i64 %21, i64 1)
  %23 = icmp ne i64 %22, 0
  br i1 %23, label %24, label %120

24:                                               ; preds = %16
  %25 = load i32, ptr %4, align 4, !tbaa !19
  %26 = zext i32 %25 to i64
  %27 = getelementptr inbounds nuw [13 x ptr], ptr @H5VL_opt_ops_g, i64 0, i64 %26
  %28 = load ptr, ptr %27, align 8, !tbaa !11
  %29 = icmp ne ptr %28, null
  br i1 %29, label %30, label %99

30:                                               ; preds = %24
  call void @llvm.lifetime.start.p0(i64 8, ptr %8) #4
  %31 = load i32, ptr %4, align 4, !tbaa !19
  %32 = zext i32 %31 to i64
  %33 = getelementptr inbounds nuw [13 x ptr], ptr @H5VL_opt_ops_g, i64 0, i64 %32
  %34 = load ptr, ptr %33, align 8, !tbaa !11
  %35 = load ptr, ptr %5, align 8, !tbaa !21
  %36 = call ptr @H5SL_remove(ptr noundef %34, ptr noundef %35)
  store ptr %36, ptr %8, align 8, !tbaa !17
  %37 = icmp eq ptr null, %36
  br i1 %37, label %38, label %57

38:                                               ; preds = %30
  br label %39

39:                                               ; preds = %38
  br label %40

40:                                               ; preds = %39
  br label %41

41:                                               ; preds = %40
  %42 = load i64, ptr @H5E_VOL_g, align 8, !tbaa !9
  %43 = load i64, ptr @H5E_NOTFOUND_g, align 8, !tbaa !9
  %44 = call i32 (ptr, ptr, i32, i64, i64, ptr, ...) @H5E_printf_stack(ptr noundef @.str, ptr noundef @__func__.H5VL__unregister_opt_operation, i32 noundef 319, i64 noundef %42, i64 noundef %43, ptr noundef @.str.6)
  br label %45

45:                                               ; preds = %41
  br label %46

46:                                               ; preds = %45
  store i8 1, ptr %7, align 1, !tbaa !3
  %47 = load i8, ptr %7, align 1, !tbaa !3, !range !7, !noundef !8
  %48 = trunc i8 %47 to i1
  %49 = zext i1 %48 to i8
  store i8 %49, ptr %7, align 1, !tbaa !3
  br label %50

50:                                               ; preds = %46
  br label %51

51:                                               ; preds = %50
  br label %52

52:                                               ; preds = %51
  store i32 -1, ptr %6, align 4, !tbaa !19
  store i32 10, ptr %9, align 4
  br label %96

53:                                               ; No predecessors!
  br label %54

54:                                               ; preds = %53
  br label %55

55:                                               ; preds = %54
  br label %56

56:                                               ; preds = %55
  br label %57

57:                                               ; preds = %56, %30
  %58 = load ptr, ptr %8, align 8, !tbaa !17
  call void @H5VL__release_dyn_op(ptr noundef %58)
  %59 = load i32, ptr %4, align 4, !tbaa !19
  %60 = zext i32 %59 to i64
  %61 = getelementptr inbounds nuw [13 x ptr], ptr @H5VL_opt_ops_g, i64 0, i64 %60
  %62 = load ptr, ptr %61, align 8, !tbaa !11
  %63 = call i64 @H5SL_count(ptr noundef %62)
  %64 = icmp eq i64 0, %63
  br i1 %64, label %65, label %95

65:                                               ; preds = %57
  %66 = load i32, ptr %4, align 4, !tbaa !19
  %67 = zext i32 %66 to i64
  %68 = getelementptr inbounds nuw [13 x ptr], ptr @H5VL_opt_ops_g, i64 0, i64 %67
  %69 = load ptr, ptr %68, align 8, !tbaa !11
  %70 = call i32 @H5SL_close(ptr noundef %69)
  %71 = icmp slt i32 %70, 0
  br i1 %71, label %72, label %91

72:                                               ; preds = %65
  br label %73

73:                                               ; preds = %72
  br label %74

74:                                               ; preds = %73
  br label %75

75:                                               ; preds = %74
  %76 = load i64, ptr @H5E_VOL_g, align 8, !tbaa !9
  %77 = load i64, ptr @H5E_CANTCLOSEOBJ_g, align 8, !tbaa !9
  %78 = call i32 (ptr, ptr, i32, i64, i64, ptr, ...) @H5E_printf_stack(ptr noundef @.str, ptr noundef @__func__.H5VL__unregister_opt_operation, i32 noundef 327, i64 noundef %76, i64 noundef %77, ptr noundef @.str.7)
  br label %79

79:                                               ; preds = %75
  br label %80

80:                                               ; preds = %79
  store i8 1, ptr %7, align 1, !tbaa !3
  %81 = load i8, ptr %7, align 1, !tbaa !3, !range !7, !noundef !8
  %82 = trunc i8 %81 to i1
  %83 = zext i1 %82 to i8
  store i8 %83, ptr %7, align 1, !tbaa !3
  br label %84

84:                                               ; preds = %80
  br label %85

85:                                               ; preds = %84
  br label %86

86:                                               ; preds = %85
  store i32 -1, ptr %6, align 4, !tbaa !19
  store i32 10, ptr %9, align 4
  br label %96

87:                                               ; No predecessors!
  br label %88

88:                                               ; preds = %87
  br label %89

89:                                               ; preds = %88
  br label %90

90:                                               ; preds = %89
  br label %91

91:                                               ; preds = %90, %65
  %92 = load i32, ptr %4, align 4, !tbaa !19
  %93 = zext i32 %92 to i64
  %94 = getelementptr inbounds nuw [13 x ptr], ptr @H5VL_opt_ops_g, i64 0, i64 %93
  store ptr null, ptr %94, align 8, !tbaa !11
  br label %95

95:                                               ; preds = %91, %57
  store i32 0, ptr %9, align 4
  br label %96

96:                                               ; preds = %86, %52, %95
  call void @llvm.lifetime.end.p0(i64 8, ptr %8) #4
  %97 = load i32, ptr %9, align 4
  switch i32 %97, label %122 [
    i32 0, label %98
    i32 10, label %119
  ]

98:                                               ; preds = %96
  br label %118

99:                                               ; preds = %24
  br label %100

100:                                              ; preds = %99
  br label %101

101:                                              ; preds = %100
  br label %102

102:                                              ; preds = %101
  %103 = load i64, ptr @H5E_VOL_g, align 8, !tbaa !9
  %104 = load i64, ptr @H5E_NOTFOUND_g, align 8, !tbaa !9
  %105 = call i32 (ptr, ptr, i32, i64, i64, ptr, ...) @H5E_printf_stack(ptr noundef @.str, ptr noundef @__func__.H5VL__unregister_opt_operation, i32 noundef 332, i64 noundef %103, i64 noundef %104, ptr noundef @.str.6)
  br label %106

106:                                              ; preds = %102
  br label %107

107:                                              ; preds = %106
  store i8 1, ptr %7, align 1, !tbaa !3
  %108 = load i8, ptr %7, align 1, !tbaa !3, !range !7, !noundef !8
  %109 = trunc i8 %108 to i1
  %110 = zext i1 %109 to i8
  store i8 %110, ptr %7, align 1, !tbaa !3
  br label %111

111:                                              ; preds = %107
  br label %112

112:                                              ; preds = %111
  br label %113

113:                                              ; preds = %112
  store i32 -1, ptr %6, align 4, !tbaa !19
  br label %119

114:                                              ; No predecessors!
  br label %115

115:                                              ; preds = %114
  br label %116

116:                                              ; preds = %115
  br label %117

117:                                              ; preds = %116
  br label %118

118:                                              ; preds = %117, %98
  br label %119

119:                                              ; preds = %118, %96, %113
  br label %120

120:                                              ; preds = %119, %16
  %121 = load i32, ptr %6, align 4, !tbaa !19
  store i32 %121, ptr %3, align 4
  store i32 1, ptr %9, align 4
  br label %122

122:                                              ; preds = %120, %96
  call void @llvm.lifetime.end.p0(i64 1, ptr %7) #4
  call void @llvm.lifetime.end.p0(i64 4, ptr %6) #4
  %123 = load i32, ptr %3, align 4
  ret i32 %123
}