; Function Attrs: nounwind uwtable
define range(i32 -1, 1) i32 @H5VL__unregister_opt_operation(i32 noundef %0, ptr noundef %1) local_unnamed_addr #0 {
  %3 = load i8, ptr @H5VL_init_g, align 1, !tbaa !3, !range !7, !noundef !8
  %4 = trunc nuw i8 %3 to i1
  %5 = load i8, ptr @H5_libterm_g, align 1, !range !7
  %6 = trunc nuw i8 %5 to i1
  %7 = xor i1 %6, true
  %8 = select i1 %4, i1 true, i1 %7
  br i1 %8, label %9, label %47, !prof !9

9:                                                ; preds = %2
  %10 = zext i32 %0 to i64
  %11 = getelementptr inbounds nuw [13 x ptr], ptr @H5VL_opt_ops_g, i64 0, i64 %10
  %12 = load ptr, ptr %11, align 8, !tbaa !10
  %.not = icmp eq ptr %12, null
  br i1 %.not, label %43, label %13

13:                                               ; preds = %9
  %14 = tail call ptr @H5SL_remove(ptr noundef nonnull %12, ptr noundef %1) #2
  %15 = icmp eq ptr %14, null
  br i1 %15, label %16, label %20

16:                                               ; preds = %13
  %17 = load i64, ptr @H5E_VOL_g, align 8, !tbaa !19
  %18 = load i64, ptr @H5E_NOTFOUND_g, align 8, !tbaa !19
  %19 = tail call i32 (ptr, ptr, i32, i64, i64, ptr, ...) @H5E_printf_stack(ptr noundef nonnull @.str, ptr noundef nonnull @__func__.H5VL__unregister_opt_operation, i32 noundef 319, i64 noundef %17, i64 noundef %18, ptr noundef nonnull @.str.6) #2
  br label %47

20:                                               ; preds = %13
  %21 = load i8, ptr @H5VL_init_g, align 1, !tbaa !3, !range !7, !noundef !8
  %22 = trunc nuw i8 %21 to i1
  %23 = load i8, ptr @H5_libterm_g, align 1, !range !7
  %24 = trunc nuw i8 %23 to i1
  %25 = xor i1 %24, true
  %26 = select i1 %22, i1 true, i1 %25
  br i1 %26, label %27, label %H5VL__release_dyn_op.exit, !prof !9

27:                                               ; preds = %20
  %28 = load ptr, ptr %14, align 8, !tbaa !15
  %29 = tail call ptr @H5MM_xfree(ptr noundef %28) #2
  %30 = tail call ptr @H5FL_reg_free(ptr noundef nonnull @H5_H5VL_dyn_op_t_reg_free_list, ptr noundef nonnull %14) #2
  br label %H5VL__release_dyn_op.exit

H5VL__release_dyn_op.exit:                        ; preds = %20, %27
  %31 = load ptr, ptr %11, align 8, !tbaa !10
  %32 = tail call i64 @H5SL_count(ptr noundef %31) #2
  %33 = icmp eq i64 %32, 0
  br i1 %33, label %34, label %47

34:                                               ; preds = %H5VL__release_dyn_op.exit
  %35 = load ptr, ptr %11, align 8, !tbaa !10
  %36 = tail call i32 @H5SL_close(ptr noundef %35) #2
  %37 = icmp slt i32 %36, 0
  br i1 %37, label %38, label %42

38:                                               ; preds = %34
  %39 = load i64, ptr @H5E_VOL_g, align 8, !tbaa !19
  %40 = load i64, ptr @H5E_CANTCLOSEOBJ_g, align 8, !tbaa !19
  %41 = tail call i32 (ptr, ptr, i32, i64, i64, ptr, ...) @H5E_printf_stack(ptr noundef nonnull @.str, ptr noundef nonnull @__func__.H5VL__unregister_opt_operation, i32 noundef 327, i64 noundef %39, i64 noundef %40, ptr noundef nonnull @.str.7) #2
  br label %47

42:                                               ; preds = %34
  store ptr null, ptr %11, align 8, !tbaa !10
  br label %47

43:                                               ; preds = %9
  %44 = load i64, ptr @H5E_VOL_g, align 8, !tbaa !19
  %45 = load i64, ptr @H5E_NOTFOUND_g, align 8, !tbaa !19
  %46 = tail call i32 (ptr, ptr, i32, i64, i64, ptr, ...) @H5E_printf_stack(ptr noundef nonnull @.str, ptr noundef nonnull @__func__.H5VL__unregister_opt_operation, i32 noundef 332, i64 noundef %44, i64 noundef %45, ptr noundef nonnull @.str.6) #2
  br label %47

47:                                               ; preds = %16, %38, %42, %H5VL__release_dyn_op.exit, %2, %43
  %.012 = phi i32 [ -1, %43 ], [ 0, %2 ], [ -1, %16 ], [ -1, %38 ], [ 0, %42 ], [ 0, %H5VL__release_dyn_op.exit ]
  ret i32 %.012
}